; Function Attrs: nofree norecurse nosync nounwind memory(readwrite, inaccessiblemem: none) uwtable
define internal void @ff_tx_fft524288_ns_double_c(ptr readnone captures(none) %0, ptr noundef initializes((0, 256)) %1, ptr noundef readonly captures(none) %2, i64 %3) #10 {
  tail call void @ff_tx_fft65536_ns_double_c(ptr readnone poison, ptr noundef %1, ptr noundef readonly %2, i64 poison)
  %5 = getelementptr inbounds nuw i8, ptr %1, i64 1048576
  %6 = getelementptr inbounds nuw i8, ptr %2, i64 1048576
  tail call void @ff_tx_fft32768_ns_double_c(ptr readnone poison, ptr noundef nonnull %5, ptr noundef nonnull readonly %6, i64 poison)
  %7 = getelementptr inbounds nuw i8, ptr %1, i64 1572864
  %8 = getelementptr inbounds nuw i8, ptr %2, i64 1572864
  tail call void @ff_tx_fft32768_ns_double_c(ptr readnone poison, ptr noundef nonnull %7, ptr noundef nonnull readonly %8, i64 poison)
  tail call fastcc void @ff_tx_fft_sr_combine_double_c(ptr noundef %1, ptr noundef nonnull @ff_tx_tab_131072_double, i32 noundef 16384)
  %9 = getelementptr inbounds nuw i8, ptr %1, i64 2097152
  %10 = getelementptr inbounds nuw i8, ptr %2, i64 2097152
  tail call void @ff_tx_fft65536_ns_double_c(ptr readnone poison, ptr noundef nonnull %9, ptr noundef nonnull readonly %10, i64 poison)
  %11 = getelementptr inbounds nuw i8, ptr %1, i64 3145728
  %12 = getelementptr inbounds nuw i8, ptr %2, i64 3145728
  tail call void @ff_tx_fft65536_ns_double_c(ptr readnone poison, ptr noundef nonnull %11, ptr noundef nonnull readonly %12, i64 poison)
  tail call fastcc void @ff_tx_fft_sr_combine_double_c(ptr noundef %1, ptr noundef nonnull @ff_tx_tab_262144_double, i32 noundef 32768)
  %13 = getelementptr inbounds nuw i8, ptr %1, i64 4194304
  %14 = getelementptr inbounds nuw i8, ptr %2, i64 4194304
  tail call void @ff_tx_fft65536_ns_double_c(ptr readnone poison, ptr noundef nonnull %13, ptr noundef nonnull readonly %14, i64 poison)
  %15 = getelementptr inbounds nuw i8, ptr %1, i64 5242880
  %16 = getelementptr inbounds nuw i8, ptr %2, i64 5242880
  tail call void @ff_tx_fft32768_ns_double_c(ptr readnone poison, ptr noundef nonnull %15, ptr noundef nonnull readonly %16, i64 poison)
  %17 = getelementptr inbounds nuw i8, ptr %1, i64 5767168
  %18 = getelementptr inbounds nuw i8, ptr %2, i64 5767168
  tail call void @ff_tx_fft32768_ns_double_c(ptr readnone poison, ptr noundef nonnull %17, ptr noundef nonnull readonly %18, i64 poison)
  tail call fastcc void @ff_tx_fft_sr_combine_double_c(ptr noundef nonnull %13, ptr noundef nonnull @ff_tx_tab_131072_double, i32 noundef 16384)
  %19 = getelementptr inbounds nuw i8, ptr %1, i64 6291456
  %20 = getelementptr inbounds nuw i8, ptr %2, i64 6291456
  tail call void @ff_tx_fft65536_ns_double_c(ptr readnone poison, ptr noundef nonnull %19, ptr noundef nonnull readonly %20, i64 poison)
  %21 = getelementptr inbounds nuw i8, ptr %1, i64 7340032
  %22 = getelementptr inbounds nuw i8, ptr %2, i64 7340032
  tail call void @ff_tx_fft32768_ns_double_c(ptr readnone poison, ptr noundef nonnull %21, ptr noundef nonnull readonly %22, i64 poison)
  %23 = getelementptr inbounds nuw i8, ptr %1, i64 7864320
  %24 = getelementptr inbounds nuw i8, ptr %2, i64 7864320
  tail call void @ff_tx_fft32768_ns_double_c(ptr readnone poison, ptr noundef nonnull %23, ptr noundef nonnull readonly %24, i64 poison)
  tail call fastcc void @ff_tx_fft_sr_combine_double_c(ptr noundef nonnull %19, ptr noundef nonnull @ff_tx_tab_131072_double, i32 noundef 16384)
  tail call fastcc void @ff_tx_fft_sr_combine_double_c(ptr noundef %1, ptr noundef nonnull @ff_tx_tab_524288_double, i32 noundef 65536)
  ret void
}